target datalayout = "e-m:e-p270:32:32-p271:32:32-p272:64:64-i64:64-i128:128-f80:128-n8:16:32:64-S128"
target triple = "x86_64-pc-linux-gnu"

%struct.addrinfo = type { i32, i32, i32, i32, i32, ptr, ptr, ptr }

; Function Attrs: nounwind uwtable
define dso_local void @pg_freeaddrinfo_all(i32 noundef %0, ptr noundef %1) #0 {
  %3 = alloca i32, align 4
  %4 = alloca ptr, align 8
  %5 = alloca ptr, align 8
  store i32 %0, ptr %3, align 4
  store ptr %1, ptr %4, align 8
  %6 = load i32, ptr %3, align 4
  %7 = icmp eq i32 %6, 1
  br i1 %7, label %8, label %22

8:                                                ; preds = %2
  br label %9

9:                                                ; preds = %12, %8
  %10 = load ptr, ptr %4, align 8
  %11 = icmp ne ptr %10, null
  br i1 %11, label %12, label %21

12:                                               ; preds = %9
  call void @llvm.lifetime.start.p0(i64 8, ptr %5) #8
  %13 = load ptr, ptr %4, align 8
  store ptr %13, ptr %5, align 8
  %14 = load ptr, ptr %4, align 8
  %15 = getelementptr inbounds nuw %struct.addrinfo, ptr %14, i32 0, i32 7
  %16 = load ptr, ptr %15, align 8
  store ptr %16, ptr %4, align 8
  %17 = load ptr, ptr %5, align 8
  %18 = getelementptr inbounds nuw %struct.addrinfo, ptr %17, i32 0, i32 5
  %19 = load ptr, ptr %18, align 8
  call void @free(ptr noundef %19) #8
  %20 = load ptr, ptr %5, align 8
  call void @free(ptr noundef %20) #8
  call void @llvm.lifetime.end.p0(i64 8, ptr %5) #8
  br label %9, !llvm.loop !4

21:                                               ; preds = %9
  br label %28

22:                                               ; preds = %2
  %23 = load ptr, ptr %4, align 8
  %24 = icmp ne ptr %23, null
  br i1 %24, label %25, label %27

25:                                               ; preds = %22
  %26 = load ptr, ptr %4, align 8
  call void @freeaddrinfo(ptr noundef %26) #8
  br label %27

27:                                               ; preds = %25, %22
  br label %28

28:                                               ; preds = %27, %21
  ret void
}