; Function Attrs: nounwind uwtable
define dso_local void @pg_freeaddrinfo_all(i32 noundef %0, ptr noundef %1) local_unnamed_addr #0 {
  %3 = icmp eq i32 %0, 1
  %.not89 = icmp eq ptr %1, null
  br i1 %3, label %.preheader, label %8

.preheader:                                       ; preds = %2
  br i1 %.not89, label %.loopexit, label %.lr.ph

.lr.ph:                                           ; preds = %.preheader, %.lr.ph
  %.010 = phi ptr [ %5, %.lr.ph ], [ %1, %.preheader ]
  %4 = getelementptr inbounds nuw i8, ptr %.010, i64 40
  %5 = load ptr, ptr %4, align 8
  %6 = getelementptr inbounds nuw i8, ptr %.010, i64 24
  %7 = load ptr, ptr %6, align 8
  tail call void @free(ptr noundef %7) #11
  tail call void @free(ptr noundef nonnull %.010) #11
  %.not8 = icmp eq ptr %5, null
  br i1 %.not8, label %.loopexit, label %.lr.ph, !llvm.loop !4

8:                                                ; preds = %2
  br i1 %.not89, label %.loopexit, label %9

9:                                                ; preds = %8
  tail call void @freeaddrinfo(ptr noundef nonnull %1) #11
  br label %.loopexit

.loopexit:                                        ; preds = %.lr.ph, %.preheader, %8, %9
  ret void
}